target datalayout = "e-m:e-p270:32:32-p271:32:32-p272:64:64-i64:64-i128:128-f80:128-n8:16:32:64-S128"
target triple = "x86_64-unknown-linux-gnu"

%"class.google::LogMessageFatal" = type { %"class.google::LogMessage" }
%"class.google::LogMessage" = type { ptr, ptr, %"struct.google::LogMessageTime" }
%"struct.google::LogMessageTime" = type { %struct.tm, i64, i32, i64 }
%struct.tm = type { i32, i32, i32, i32, i32, i32, i32, i32, i32, i64, ptr }
%"class.google::LogMessageVoidify" = type { i8 }

@.str = private unnamed_addr constant [6 x i8] c"Start\00", align 1
@.str.1 = private unnamed_addr constant [24 x i8] c"NonFinalHeadersReceived\00", align 1
@.str.2 = private unnamed_addr constant [21 x i8] c"FinalHeadersReceived\00", align 1
@.str.3 = private unnamed_addr constant [20 x i8] c"RegularBodyReceived\00", align 1
@.str.4 = private unnamed_addr constant [20 x i8] c"ChunkHeaderReceived\00", align 1
@.str.5 = private unnamed_addr constant [18 x i8] c"ChunkBodyReceived\00", align 1
@.str.6 = private unnamed_addr constant [15 x i8] c"ChunkCompleted\00", align 1
@.str.7 = private unnamed_addr constant [17 x i8] c"TrailersReceived\00", align 1
@.str.8 = private unnamed_addr constant [16 x i8] c"UpgradeComplete\00", align 1
@.str.9 = private unnamed_addr constant [10 x i8] c"EOMQueued\00", align 1
@.str.10 = private unnamed_addr constant [14 x i8] c"ReceivingDone\00", align 1
@.str.11 = private unnamed_addr constant [150 x i8] c"generated/home/dtcxzyw/WorkSpace/Projects/compilers/llvm-opt-benchmark/bench/proxygen/proxygen/proxygen/lib/http/session/HTTPTransactionIngressSM.cpp\00", align 1
@.str.12 = private unnamed_addr constant [21 x i8] c"Check failed: false \00", align 1
@.str.13 = private unnamed_addr constant [10 x i8] c"Bad state\00", align 1

; Function Attrs: mustprogress nounwind uwtable
define linkonce_odr void @_ZN6google17LogMessageVoidifyanERSo(ptr noundef nonnull align 1 dereferenceable(1) %this, ptr noundef nonnull align 8 dereferenceable(8) %0) #2 comdat align 2 {
entry:
  %this.addr = alloca ptr, align 8
  %.addr = alloca ptr, align 8
  store ptr %this, ptr %this.addr, align 8
  store ptr %0, ptr %.addr, align 8
  ret void
}

; Function Attrs: mustprogress nounwind uwtable
define linkonce_odr void @_ZN6google17LogMessageVoidifyC2Ev(ptr noundef nonnull align 1 dereferenceable(1) %this) unnamed_addr #2 comdat align 2 {
entry:
  %this.addr = alloca ptr, align 8
  store ptr %this, ptr %this.addr, align 8
  ret void
}

; Function Attrs: mustprogress uwtable
define noundef nonnull align 8 dereferenceable(8) ptr @_ZN8proxygenlsERSoNS_28HTTPTransactionIngressSMData5StateE(ptr noundef nonnull align 8 dereferenceable(8) %os, i8 noundef zeroext %s) #0 personality ptr @__gxx_personality_v0 {
entry:
  %os.addr = alloca ptr, align 8
  %s.addr = alloca i8, align 1
  %ref.tmp = alloca %"class.google::LogMessageVoidify", align 1
  %ref.tmp22 = alloca %"class.google::LogMessageFatal", align 8
  %exn.slot = alloca ptr, align 8
  %ehselector.slot = alloca i32, align 4
  store ptr %os, ptr %os.addr, align 8
  store i8 %s, ptr %s.addr, align 1
  %0 = load i8, ptr %s.addr, align 1
  switch i8 %0, label %sw.epilog [
    i8 0, label %sw.bb
    i8 1, label %sw.bb1
    i8 2, label %sw.bb3
    i8 3, label %sw.bb5
    i8 4, label %sw.bb7
    i8 5, label %sw.bb9
    i8 6, label %sw.bb11
    i8 7, label %sw.bb13
    i8 8, label %sw.bb15
    i8 9, label %sw.bb17
    i8 10, label %sw.bb19
    i8 11, label %sw.bb21
  ]

sw.bb:                                            ; preds = %entry
  %1 = load ptr, ptr %os.addr, align 8
  %call = call noundef nonnull align 8 dereferenceable(8) ptr @_ZStlsISt11char_traitsIcEERSt13basic_ostreamIcT_ES5_PKc(ptr noundef nonnull align 8 dereferenceable(8) %1, ptr noundef @.str)
  br label %sw.epilog

sw.bb1:                                           ; preds = %entry
  %2 = load ptr, ptr %os.addr, align 8
  %call2 = call noundef nonnull align 8 dereferenceable(8) ptr @_ZStlsISt11char_traitsIcEERSt13basic_ostreamIcT_ES5_PKc(ptr noundef nonnull align 8 dereferenceable(8) %2, ptr noundef @.str.1)
  br label %sw.epilog

sw.bb3:                                           ; preds = %entry
  %3 = load ptr, ptr %os.addr, align 8
  %call4 = call noundef nonnull align 8 dereferenceable(8) ptr @_ZStlsISt11char_traitsIcEERSt13basic_ostreamIcT_ES5_PKc(ptr noundef nonnull align 8 dereferenceable(8) %3, ptr noundef @.str.2)
  br label %sw.epilog

sw.bb5:                                           ; preds = %entry
  %4 = load ptr, ptr %os.addr, align 8
  %call6 = call noundef nonnull align 8 dereferenceable(8) ptr @_ZStlsISt11char_traitsIcEERSt13basic_ostreamIcT_ES5_PKc(ptr noundef nonnull align 8 dereferenceable(8) %4, ptr noundef @.str.3)
  br label %sw.epilog

sw.bb7:                                           ; preds = %entry
  %5 = load ptr, ptr %os.addr, align 8
  %call8 = call noundef nonnull align 8 dereferenceable(8) ptr @_ZStlsISt11char_traitsIcEERSt13basic_ostreamIcT_ES5_PKc(ptr noundef nonnull align 8 dereferenceable(8) %5, ptr noundef @.str.4)
  br label %sw.epilog

sw.bb9:                                           ; preds = %entry
  %6 = load ptr, ptr %os.addr, align 8
  %call10 = call noundef nonnull align 8 dereferenceable(8) ptr @_ZStlsISt11char_traitsIcEERSt13basic_ostreamIcT_ES5_PKc(ptr noundef nonnull align 8 dereferenceable(8) %6, ptr noundef @.str.5)
  br label %sw.epilog

sw.bb11:                                          ; preds = %entry
  %7 = load ptr, ptr %os.addr, align 8
  %call12 = call noundef nonnull align 8 dereferenceable(8) ptr @_ZStlsISt11char_traitsIcEERSt13basic_ostreamIcT_ES5_PKc(ptr noundef nonnull align 8 dereferenceable(8) %7, ptr noundef @.str.6)
  br label %sw.epilog

sw.bb13:                                          ; preds = %entry
  %8 = load ptr, ptr %os.addr, align 8
  %call14 = call noundef nonnull align 8 dereferenceable(8) ptr @_ZStlsISt11char_traitsIcEERSt13basic_ostreamIcT_ES5_PKc(ptr noundef nonnull align 8 dereferenceable(8) %8, ptr noundef @.str.7)
  br label %sw.epilog

sw.bb15:                                          ; preds = %entry
  %9 = load ptr, ptr %os.addr, align 8
  %call16 = call noundef nonnull align 8 dereferenceable(8) ptr @_ZStlsISt11char_traitsIcEERSt13basic_ostreamIcT_ES5_PKc(ptr noundef nonnull align 8 dereferenceable(8) %9, ptr noundef @.str.8)
  br label %sw.epilog

sw.bb17:                                          ; preds = %entry
  %10 = load ptr, ptr %os.addr, align 8
  %call18 = call noundef nonnull align 8 dereferenceable(8) ptr @_ZStlsISt11char_traitsIcEERSt13basic_ostreamIcT_ES5_PKc(ptr noundef nonnull align 8 dereferenceable(8) %10, ptr noundef @.str.9)
  br label %sw.epilog

sw.bb19:                                          ; preds = %entry
  %11 = load ptr, ptr %os.addr, align 8
  %call20 = call noundef nonnull align 8 dereferenceable(8) ptr @_ZStlsISt11char_traitsIcEERSt13basic_ostreamIcT_ES5_PKc(ptr noundef nonnull align 8 dereferenceable(8) %11, ptr noundef @.str.10)
  br label %sw.epilog

sw.bb21:                                          ; preds = %entry
  call void @_ZN6google17LogMessageVoidifyC2Ev(ptr noundef nonnull align 1 dereferenceable(1) %ref.tmp)
  call void @_ZN6google15LogMessageFatalC1EPKci(ptr noundef nonnull align 8 dereferenceable(96) %ref.tmp22, ptr noundef @.str.11, i32 noundef 130)
  %call23 = invoke noundef nonnull align 8 dereferenceable(8) ptr @_ZN6google10LogMessage6streamEv(ptr noundef nonnull align 8 dereferenceable(96) %ref.tmp22)
          to label %invoke.cont unwind label %lpad

invoke.cont:                                      ; preds = %sw.bb21
  %call25 = invoke noundef nonnull align 8 dereferenceable(8) ptr @_ZStlsISt11char_traitsIcEERSt13basic_ostreamIcT_ES5_PKc(ptr noundef nonnull align 8 dereferenceable(8) %call23, ptr noundef @.str.12)
          to label %invoke.cont24 unwind label %lpad

invoke.cont24:                                    ; preds = %invoke.cont
  %call27 = invoke noundef nonnull align 8 dereferenceable(8) ptr @_ZStlsISt11char_traitsIcEERSt13basic_ostreamIcT_ES5_PKc(ptr noundef nonnull align 8 dereferenceable(8) %call25, ptr noundef @.str.13)
          to label %invoke.cont26 unwind label %lpad

invoke.cont26:                                    ; preds = %invoke.cont24
  invoke void @_ZN6google17LogMessageVoidifyanERSo(ptr noundef nonnull align 1 dereferenceable(1) %ref.tmp, ptr noundef nonnull align 8 dereferenceable(8) %call27)
          to label %invoke.cont28 unwind label %lpad

invoke.cont28:                                    ; preds = %invoke.cont26
  call void @_ZN6google15LogMessageFatalD1Ev(ptr noundef nonnull align 8 dereferenceable(96) %ref.tmp22) #13
  unreachable

lpad:                                             ; preds = %invoke.cont26, %invoke.cont24, %invoke.cont, %sw.bb21
  %12 = landingpad { ptr, i32 }
          cleanup
  %13 = extractvalue { ptr, i32 } %12, 0
  store ptr %13, ptr %exn.slot, align 8
  %14 = extractvalue { ptr, i32 } %12, 1
  store i32 %14, ptr %ehselector.slot, align 4
  call void @_ZN6google15LogMessageFatalD1Ev(ptr noundef nonnull align 8 dereferenceable(96) %ref.tmp22) #13
  unreachable

15:                                               ; No predecessors!
  br label %eh.resume

sw.epilog:                                        ; preds = %sw.bb19, %sw.bb17, %sw.bb15, %sw.bb13, %sw.bb11, %sw.bb9, %sw.bb7, %sw.bb5, %sw.bb3, %sw.bb1, %sw.bb, %entry
  %16 = load ptr, ptr %os.addr, align 8
  ret ptr %16

eh.resume:                                        ; preds = %15
  %exn = load ptr, ptr %exn.slot, align 8
  %sel = load i32, ptr %ehselector.slot, align 4
  %lpad.val = insertvalue { ptr, i32 } poison, ptr %exn, 0
  %lpad.val29 = insertvalue { ptr, i32 } %lpad.val, i32 %sel, 1
  resume { ptr, i32 } %lpad.val29
}